; Function Attrs: nounwind uwtable
define ptr @l_Array_findSomeRevM_x3f_find___at_Lake_Package_findModuleBySrc_x3f___spec__1(ptr noundef %0, ptr noundef readonly captures(none) %1, ptr noundef %2, ptr readnone captures(none) %3) local_unnamed_addr #0 {
  %5 = getelementptr inbounds nuw i8, ptr %1, i64 24
  %6 = ptrtoint ptr %0 to i64
  %7 = and i64 %6, 1
  %.not54 = icmp eq i64 %7, 0
  br label %lean_dec.exit26

lean_dec.exit26:                                  ; preds = %lean_obj_tag.exit, %4
  %.022 = phi ptr [ %2, %4 ], [ %.1.i44, %lean_obj_tag.exit ]
  %8 = ptrtoint ptr %.022 to i64
  %9 = and i64 %8, 1
  %.not = icmp eq i64 %9, 0
  br i1 %.not, label %lean_nat_eq.exit.thread, label %lean_nat_eq.exit, !prof !17

lean_nat_eq.exit:                                 ; preds = %lean_dec.exit26
  %.not52 = icmp eq ptr %.022, inttoptr (i64 1 to ptr)
  br i1 %.not52, label %lean_dec.exit25, label %11

lean_nat_eq.exit.thread:                          ; preds = %lean_dec.exit26
  %10 = tail call zeroext i1 @lean_nat_big_eq(ptr noundef %.022, ptr noundef nonnull inttoptr (i64 1 to ptr)) #4
  br i1 %10, label %.thread45, label %.thread

11:                                               ; preds = %lean_nat_eq.exit
  %12 = icmp ult ptr %.022, inttoptr (i64 2 to ptr)
  br i1 %12, label %lean_dec.exit28, label %13

13:                                               ; preds = %11
  %14 = add i64 %8, -2
  %15 = inttoptr i64 %14 to ptr
  br label %lean_dec.exit28

.thread:                                          ; preds = %lean_nat_eq.exit.thread
  %16 = tail call ptr @lean_nat_big_sub(ptr noundef %.022, ptr noundef nonnull inttoptr (i64 3 to ptr)) #4
  %17 = load i32, ptr %.022, align 4, !tbaa !8
  %18 = icmp sgt i32 %17, 1
  br i1 %18, label %19, label %21, !prof !11

19:                                               ; preds = %.thread
  %20 = add nsw i32 %17, -1
  store i32 %20, ptr %.022, align 4, !tbaa !8
  br label %lean_dec.exit28

21:                                               ; preds = %.thread
  %.not.i = icmp eq i32 %17, 0
  br i1 %.not.i, label %lean_dec.exit28, label %22

22:                                               ; preds = %21
  tail call void @lean_dec_ref_cold(ptr noundef nonnull %.022) #4
  br label %lean_dec.exit28

lean_dec.exit28:                                  ; preds = %13, %11, %22, %21, %19
  %.1.i44 = phi ptr [ %16, %19 ], [ %16, %21 ], [ %16, %22 ], [ inttoptr (i64 1 to ptr), %11 ], [ %15, %13 ]
  %23 = ptrtoint ptr %.1.i44 to i64
  %24 = lshr i64 %23, 1
  %25 = getelementptr inbounds nuw [0 x ptr], ptr %5, i64 0, i64 %24
  %26 = load ptr, ptr %25, align 8, !tbaa !4
  %27 = ptrtoint ptr %26 to i64
  %28 = and i64 %27, 1
  %.not.i.i = icmp eq i64 %28, 0
  br i1 %.not.i.i, label %29, label %lean_array_fget.exit

29:                                               ; preds = %lean_dec.exit28
  %.val.i.i.i = load i32, ptr %26, align 4, !tbaa !8
  %30 = icmp sgt i32 %.val.i.i.i, 0
  br i1 %30, label %31, label %33, !prof !11

31:                                               ; preds = %29
  %32 = add nuw i32 %.val.i.i.i, 1
  store i32 %32, ptr %26, align 4, !tbaa !8
  br label %lean_array_fget.exit

33:                                               ; preds = %29
  %.not.i.i.i = icmp eq i32 %.val.i.i.i, 0
  br i1 %.not.i.i.i, label %lean_array_fget.exit, label %34

34:                                               ; preds = %33
  tail call void @lean_inc_ref_cold(ptr noundef nonnull %26) #4
  br label %lean_array_fget.exit

lean_array_fget.exit:                             ; preds = %lean_dec.exit28, %31, %33, %34
  br i1 %.not54, label %35, label %lean_inc.exit

35:                                               ; preds = %lean_array_fget.exit
  %.val.i = load i32, ptr %0, align 4, !tbaa !8
  %36 = icmp sgt i32 %.val.i, 0
  br i1 %36, label %37, label %39, !prof !11

37:                                               ; preds = %35
  %38 = add nuw i32 %.val.i, 1
  store i32 %38, ptr %0, align 4, !tbaa !8
  br label %lean_inc.exit

39:                                               ; preds = %35
  %.not.i38 = icmp eq i32 %.val.i, 0
  br i1 %.not.i38, label %lean_inc.exit, label %40

40:                                               ; preds = %39
  tail call void @lean_inc_ref_cold(ptr noundef nonnull %0) #4
  br label %lean_inc.exit

lean_inc.exit:                                    ; preds = %40, %39, %37, %lean_array_fget.exit
  %41 = tail call ptr @l_Lake_LeanExe_isRootSrc_x3f(ptr noundef %0, ptr noundef %26)
  %42 = ptrtoint ptr %41 to i64
  %43 = and i64 %42, 1
  %.not.i39 = icmp eq i64 %43, 0
  br i1 %.not.i39, label %47, label %44

44:                                               ; preds = %lean_inc.exit
  %45 = lshr i64 %42, 1
  %46 = trunc i64 %45 to i32
  br label %lean_obj_tag.exit

47:                                               ; preds = %lean_inc.exit
  %48 = getelementptr i8, ptr %41, i64 4
  %.val.i41 = load i32, ptr %48, align 4
  %49 = lshr i32 %.val.i41, 24
  br label %lean_obj_tag.exit

lean_obj_tag.exit:                                ; preds = %44, %47
  %.0.i40 = phi i32 [ %46, %44 ], [ %49, %47 ]
  %50 = icmp eq i32 %.0.i40, 0
  br i1 %50, label %lean_dec.exit26, label %51

51:                                               ; preds = %lean_obj_tag.exit
  %52 = and i64 %23, 1
  %.not55 = icmp eq i64 %52, 0
  br i1 %.not55, label %53, label %lean_dec.exit27

53:                                               ; preds = %51
  %54 = load i32, ptr %.1.i44, align 4, !tbaa !8
  %55 = icmp sgt i32 %54, 1
  br i1 %55, label %56, label %58, !prof !11

56:                                               ; preds = %53
  %57 = add nsw i32 %54, -1
  store i32 %57, ptr %.1.i44, align 4, !tbaa !8
  br label %lean_dec.exit27

58:                                               ; preds = %53
  %.not.i29 = icmp eq i32 %54, 0
  br i1 %.not.i29, label %lean_dec.exit27, label %59

59:                                               ; preds = %58
  tail call void @lean_dec_ref_cold(ptr noundef nonnull %.1.i44) #4
  br label %lean_dec.exit27

lean_dec.exit27:                                  ; preds = %59, %58, %56, %51
  br i1 %.not54, label %60, label %80

60:                                               ; preds = %lean_dec.exit27
  %61 = load i32, ptr %0, align 4, !tbaa !8
  %62 = icmp sgt i32 %61, 1
  br i1 %62, label %63, label %65, !prof !11

63:                                               ; preds = %60
  %64 = add nsw i32 %61, -1
  store i32 %64, ptr %0, align 4, !tbaa !8
  br label %80

65:                                               ; preds = %60
  %.not.i31 = icmp eq i32 %61, 0
  br i1 %.not.i31, label %80, label %66

66:                                               ; preds = %65
  tail call void @lean_dec_ref_cold(ptr noundef nonnull %0) #4
  br label %80

.thread45:                                        ; preds = %lean_nat_eq.exit.thread
  %67 = load i32, ptr %.022, align 4, !tbaa !8
  %68 = icmp sgt i32 %67, 1
  br i1 %68, label %69, label %71, !prof !11

69:                                               ; preds = %.thread45
  %70 = add nsw i32 %67, -1
  store i32 %70, ptr %.022, align 4, !tbaa !8
  br label %lean_dec.exit25

71:                                               ; preds = %.thread45
  %.not.i33 = icmp eq i32 %67, 0
  br i1 %.not.i33, label %lean_dec.exit25, label %72

72:                                               ; preds = %71
  tail call void @lean_dec_ref_cold(ptr noundef nonnull %.022) #4
  br label %lean_dec.exit25

lean_dec.exit25:                                  ; preds = %lean_nat_eq.exit, %72, %71, %69
  br i1 %.not54, label %73, label %80

73:                                               ; preds = %lean_dec.exit25
  %74 = load i32, ptr %0, align 4, !tbaa !8
  %75 = icmp sgt i32 %74, 1
  br i1 %75, label %76, label %78, !prof !11

76:                                               ; preds = %73
  %77 = add nsw i32 %74, -1
  store i32 %77, ptr %0, align 4, !tbaa !8
  br label %80

78:                                               ; preds = %73
  %.not.i35 = icmp eq i32 %74, 0
  br i1 %.not.i35, label %80, label %79

79:                                               ; preds = %78
  tail call void @lean_dec_ref_cold(ptr noundef nonnull %0) #4
  br label %80

80:                                               ; preds = %66, %65, %63, %lean_dec.exit27, %79, %78, %76, %lean_dec.exit25
  %.2.ph = phi ptr [ inttoptr (i64 1 to ptr), %lean_dec.exit25 ], [ inttoptr (i64 1 to ptr), %76 ], [ inttoptr (i64 1 to ptr), %78 ], [ inttoptr (i64 1 to ptr), %79 ], [ %41, %lean_dec.exit27 ], [ %41, %63 ], [ %41, %65 ], [ %41, %66 ]
  ret ptr %.2.ph
}